target datalayout = "e-m:e-p270:32:32-p271:32:32-p272:64:64-i64:64-i128:128-f80:128-n8:16:32:64-S128"
target triple = "x86_64-pc-linux-gnu"

%"struct.p2t::Point" = type { double, double, %"class.std::vector" }
%"class.std::vector" = type { %"struct.std::_Vector_base" }
%"struct.std::_Vector_base" = type { %"struct.std::_Vector_base<p2t::Edge *, std::allocator<p2t::Edge *>>::_Vector_impl" }
%"struct.std::_Vector_base<p2t::Edge *, std::allocator<p2t::Edge *>>::_Vector_impl" = type { %"struct.std::_Vector_base<p2t::Edge *, std::allocator<p2t::Edge *>>::_Vector_impl_data" }
%"struct.std::_Vector_base<p2t::Edge *, std::allocator<p2t::Edge *>>::_Vector_impl_data" = type { ptr, ptr, ptr }
%"struct.p2t::Node" = type { ptr, ptr, ptr, ptr, double }
%"class.p2t::SweepContext" = type { %"class.std::vector", %"struct.p2t::SweepContext::Basin", %"struct.p2t::SweepContext::EdgeEvent", %"class.std::vector.0", %"class.std::__cxx11::list", %"class.std::vector.8", ptr, ptr, ptr, ptr, ptr, ptr }
%"struct.p2t::SweepContext::Basin" = type <{ ptr, ptr, ptr, double, i8, [7 x i8] }>
%"struct.p2t::SweepContext::EdgeEvent" = type <{ ptr, i8, [7 x i8] }>
%"class.std::vector.0" = type { %"struct.std::_Vector_base.1" }
%"struct.std::_Vector_base.1" = type { %"struct.std::_Vector_base<p2t::Triangle *, std::allocator<p2t::Triangle *>>::_Vector_impl" }
%"struct.std::_Vector_base<p2t::Triangle *, std::allocator<p2t::Triangle *>>::_Vector_impl" = type { %"struct.std::_Vector_base<p2t::Triangle *, std::allocator<p2t::Triangle *>>::_Vector_impl_data" }
%"struct.std::_Vector_base<p2t::Triangle *, std::allocator<p2t::Triangle *>>::_Vector_impl_data" = type { ptr, ptr, ptr }
%"class.std::__cxx11::list" = type { %"class.std::__cxx11::_List_base" }
%"class.std::__cxx11::_List_base" = type { %"struct.std::__cxx11::_List_base<p2t::Triangle *, std::allocator<p2t::Triangle *>>::_List_impl" }
%"struct.std::__cxx11::_List_base<p2t::Triangle *, std::allocator<p2t::Triangle *>>::_List_impl" = type { %"struct.std::__detail::_List_node_header" }
%"struct.std::__detail::_List_node_header" = type { %"struct.std::__detail::_List_node_base", i64 }
%"struct.std::__detail::_List_node_base" = type { ptr, ptr }
%"class.std::vector.8" = type { %"struct.std::_Vector_base.9" }
%"struct.std::_Vector_base.9" = type { %"struct.std::_Vector_base<p2t::Point *, std::allocator<p2t::Point *>>::_Vector_impl" }
%"struct.std::_Vector_base<p2t::Point *, std::allocator<p2t::Point *>>::_Vector_impl" = type { %"struct.std::_Vector_base<p2t::Point *, std::allocator<p2t::Point *>>::_Vector_impl_data" }
%"struct.std::_Vector_base<p2t::Point *, std::allocator<p2t::Point *>>::_Vector_impl_data" = type { ptr, ptr, ptr }

; Function Attrs: mustprogress nounwind uwtable
define linkonce_odr noundef i32 @_ZSt10fpclassifyd(double noundef %0) #2 comdat {
  %2 = alloca double, align 8
  store double %0, ptr %2, align 8
  %3 = load double, ptr %2, align 8
  %4 = fcmp oeq double %3, 0.000000e+00
  br i1 %4, label %5, label %7

5:                                                ; preds = %12, %9, %7, %1
  %6 = phi i32 [ 2, %1 ], [ 0, %7 ], [ 1, %9 ], [ %14, %12 ]
  ret i32 %6

7:                                                ; preds = %1
  %8 = fcmp uno double %3, %3
  br i1 %8, label %5, label %9

9:                                                ; preds = %7
  %10 = call double @llvm.fabs.f64(double %3) #15
  %11 = fcmp oeq double %10, 0x7FF0000000000000
  br i1 %11, label %5, label %12

12:                                               ; preds = %9
  %13 = fcmp uge double %10, 0x10000000000000
  %14 = select i1 %13, i32 4, i32 3
  br label %5
}

; Function Attrs: mustprogress uwtable
define hidden noundef i32 @_ZN3p2t8Orient2dERKNS_5PointES2_S2_(ptr noundef nonnull align 8 dereferenceable(40) %0, ptr noundef nonnull align 8 dereferenceable(40) %1, ptr noundef nonnull align 8 dereferenceable(40) %2) #0 {
  %4 = alloca i32, align 4
  %5 = alloca ptr, align 8
  %6 = alloca ptr, align 8
  %7 = alloca ptr, align 8
  %8 = alloca double, align 8
  %9 = alloca double, align 8
  %10 = alloca double, align 8
  %11 = alloca i32, align 4
  store ptr %0, ptr %5, align 8
  store ptr %1, ptr %6, align 8
  store ptr %2, ptr %7, align 8
  call void @llvm.lifetime.start.p0(i64 8, ptr %8) #14
  %12 = load ptr, ptr %5, align 8
  %13 = getelementptr inbounds nuw %"struct.p2t::Point", ptr %12, i32 0, i32 0
  %14 = load double, ptr %13, align 8
  %15 = load ptr, ptr %7, align 8
  %16 = getelementptr inbounds nuw %"struct.p2t::Point", ptr %15, i32 0, i32 0
  %17 = load double, ptr %16, align 8
  %18 = fsub double %14, %17
  %19 = load ptr, ptr %6, align 8
  %20 = getelementptr inbounds nuw %"struct.p2t::Point", ptr %19, i32 0, i32 1
  %21 = load double, ptr %20, align 8
  %22 = load ptr, ptr %7, align 8
  %23 = getelementptr inbounds nuw %"struct.p2t::Point", ptr %22, i32 0, i32 1
  %24 = load double, ptr %23, align 8
  %25 = fsub double %21, %24
  %26 = fmul double %18, %25
  store double %26, ptr %8, align 8
  call void @llvm.lifetime.start.p0(i64 8, ptr %9) #14
  %27 = load ptr, ptr %5, align 8
  %28 = getelementptr inbounds nuw %"struct.p2t::Point", ptr %27, i32 0, i32 1
  %29 = load double, ptr %28, align 8
  %30 = load ptr, ptr %7, align 8
  %31 = getelementptr inbounds nuw %"struct.p2t::Point", ptr %30, i32 0, i32 1
  %32 = load double, ptr %31, align 8
  %33 = fsub double %29, %32
  %34 = load ptr, ptr %6, align 8
  %35 = getelementptr inbounds nuw %"struct.p2t::Point", ptr %34, i32 0, i32 0
  %36 = load double, ptr %35, align 8
  %37 = load ptr, ptr %7, align 8
  %38 = getelementptr inbounds nuw %"struct.p2t::Point", ptr %37, i32 0, i32 0
  %39 = load double, ptr %38, align 8
  %40 = fsub double %36, %39
  %41 = fmul double %33, %40
  store double %41, ptr %9, align 8
  call void @llvm.lifetime.start.p0(i64 8, ptr %10) #14
  %42 = load double, ptr %8, align 8
  %43 = load double, ptr %9, align 8
  %44 = fsub double %42, %43
  store double %44, ptr %10, align 8
  %45 = load double, ptr %10, align 8
  %46 = call noundef i32 @_ZSt10fpclassifyd(double noundef %45)
  %47 = icmp eq i32 %46, 2
  br i1 %47, label %48, label %49

48:                                               ; preds = %3
  store i32 2, ptr %4, align 4
  store i32 1, ptr %11, align 4
  br label %55

49:                                               ; preds = %3
  %50 = load double, ptr %10, align 8
  %51 = fcmp ogt double %50, 0.000000e+00
  br i1 %51, label %52, label %53

52:                                               ; preds = %49
  store i32 1, ptr %4, align 4
  store i32 1, ptr %11, align 4
  br label %55

53:                                               ; preds = %49
  br label %54

54:                                               ; preds = %53
  store i32 0, ptr %4, align 4
  store i32 1, ptr %11, align 4
  br label %55

55:                                               ; preds = %54, %52, %48
  call void @llvm.lifetime.end.p0(i64 8, ptr %10) #14
  call void @llvm.lifetime.end.p0(i64 8, ptr %9) #14
  call void @llvm.lifetime.end.p0(i64 8, ptr %8) #14
  %56 = load i32, ptr %4, align 4
  ret i32 %56
}

; Function Attrs: mustprogress nounwind uwtable
define hidden noundef zeroext i1 @_ZN3p2t5Sweep9IsShallowERNS_12SweepContextERNS_4NodeE(ptr noundef nonnull align 8 dereferenceable(24) %0, ptr noundef nonnull align 8 dereferenceable(200) %1, ptr noundef nonnull align 8 dereferenceable(40) %2) #2 align 2 {
  %4 = alloca i1, align 1
  %5 = alloca ptr, align 8
  %6 = alloca ptr, align 8
  %7 = alloca ptr, align 8
  %8 = alloca double, align 8
  %9 = alloca i32, align 4
  store ptr %0, ptr %5, align 8
  store ptr %1, ptr %6, align 8
  store ptr %2, ptr %7, align 8
  call void @llvm.lifetime.start.p0(i64 8, ptr %8) #14
  %10 = load ptr, ptr %6, align 8
  %11 = getelementptr inbounds nuw %"class.p2t::SweepContext", ptr %10, i32 0, i32 1
  %12 = getelementptr inbounds nuw %"struct.p2t::SweepContext::Basin", ptr %11, i32 0, i32 4
  %13 = load i8, ptr %12, align 8, !range !8, !noundef !9
  %14 = trunc i8 %13 to i1
  br i1 %14, label %15, label %30

15:                                               ; preds = %3
  %16 = load ptr, ptr %6, align 8
  %17 = getelementptr inbounds nuw %"class.p2t::SweepContext", ptr %16, i32 0, i32 1
  %18 = getelementptr inbounds nuw %"struct.p2t::SweepContext::Basin", ptr %17, i32 0, i32 0
  %19 = load ptr, ptr %18, align 8
  %20 = getelementptr inbounds nuw %"struct.p2t::Node", ptr %19, i32 0, i32 0
  %21 = load ptr, ptr %20, align 8
  %22 = getelementptr inbounds nuw %"struct.p2t::Point", ptr %21, i32 0, i32 1
  %23 = load double, ptr %22, align 8
  %24 = load ptr, ptr %7, align 8
  %25 = getelementptr inbounds nuw %"struct.p2t::Node", ptr %24, i32 0, i32 0
  %26 = load ptr, ptr %25, align 8
  %27 = getelementptr inbounds nuw %"struct.p2t::Point", ptr %26, i32 0, i32 1
  %28 = load double, ptr %27, align 8
  %29 = fsub double %23, %28
  store double %29, ptr %8, align 8
  br label %45

30:                                               ; preds = %3
  %31 = load ptr, ptr %6, align 8
  %32 = getelementptr inbounds nuw %"class.p2t::SweepContext", ptr %31, i32 0, i32 1
  %33 = getelementptr inbounds nuw %"struct.p2t::SweepContext::Basin", ptr %32, i32 0, i32 2
  %34 = load ptr, ptr %33, align 8
  %35 = getelementptr inbounds nuw %"struct.p2t::Node", ptr %34, i32 0, i32 0
  %36 = load ptr, ptr %35, align 8
  %37 = getelementptr inbounds nuw %"struct.p2t::Point", ptr %36, i32 0, i32 1
  %38 = load double, ptr %37, align 8
  %39 = load ptr, ptr %7, align 8
  %40 = getelementptr inbounds nuw %"struct.p2t::Node", ptr %39, i32 0, i32 0
  %41 = load ptr, ptr %40, align 8
  %42 = getelementptr inbounds nuw %"struct.p2t::Point", ptr %41, i32 0, i32 1
  %43 = load double, ptr %42, align 8
  %44 = fsub double %38, %43
  store double %44, ptr %8, align 8
  br label %45

45:                                               ; preds = %30, %15
  %46 = load ptr, ptr %6, align 8
  %47 = getelementptr inbounds nuw %"class.p2t::SweepContext", ptr %46, i32 0, i32 1
  %48 = getelementptr inbounds nuw %"struct.p2t::SweepContext::Basin", ptr %47, i32 0, i32 3
  %49 = load double, ptr %48, align 8
  %50 = load double, ptr %8, align 8
  %51 = fcmp ogt double %49, %50
  br i1 %51, label %52, label %53

52:                                               ; preds = %45
  store i1 true, ptr %4, align 1
  store i32 1, ptr %9, align 4
  br label %54

53:                                               ; preds = %45
  store i1 false, ptr %4, align 1
  store i32 1, ptr %9, align 4
  br label %54

54:                                               ; preds = %53, %52
  call void @llvm.lifetime.end.p0(i64 8, ptr %8) #14
  %55 = load i1, ptr %4, align 1
  ret i1 %55
}

; Function Attrs: mustprogress uwtable
define hidden void @_ZN3p2t5Sweep12FillBasinReqERNS_12SweepContextEPNS_4NodeE(ptr noundef nonnull align 8 dereferenceable(24) %0, ptr noundef nonnull align 8 dereferenceable(200) %1, ptr noundef %2) #0 align 2 {
  %4 = alloca ptr, align 8
  %5 = alloca ptr, align 8
  %6 = alloca ptr, align 8
  %7 = alloca i32, align 4
  %8 = alloca i32, align 4
  %9 = alloca i32, align 4
  store ptr %0, ptr %4, align 8
  store ptr %1, ptr %5, align 8
  store ptr %2, ptr %6, align 8
  %10 = load ptr, ptr %4, align 8
  %11 = load ptr, ptr %5, align 8
  %12 = load ptr, ptr %6, align 8
  %13 = call noundef zeroext i1 @_ZN3p2t5Sweep9IsShallowERNS_12SweepContextERNS_4NodeE(ptr noundef nonnull align 8 dereferenceable(24) %10, ptr noundef nonnull align 8 dereferenceable(200) %11, ptr noundef nonnull align 8 dereferenceable(40) %12)
  br i1 %13, label %14, label %15

14:                                               ; preds = %3
  br label %138

15:                                               ; preds = %3
  %16 = load ptr, ptr %5, align 8
  %17 = load ptr, ptr %6, align 8
  call void @_ZN3p2t5Sweep4FillERNS_12SweepContextERNS_4NodeE(ptr noundef nonnull align 8 dereferenceable(24) %10, ptr noundef nonnull align 8 dereferenceable(200) %16, ptr noundef nonnull align 8 dereferenceable(40) %17)
  %18 = load ptr, ptr %6, align 8
  %19 = getelementptr inbounds nuw %"struct.p2t::Node", ptr %18, i32 0, i32 3
  %20 = load ptr, ptr %19, align 8
  %21 = load ptr, ptr %5, align 8
  %22 = getelementptr inbounds nuw %"class.p2t::SweepContext", ptr %21, i32 0, i32 1
  %23 = getelementptr inbounds nuw %"struct.p2t::SweepContext::Basin", ptr %22, i32 0, i32 0
  %24 = load ptr, ptr %23, align 8
  %25 = icmp eq ptr %20, %24
  br i1 %25, label %26, label %36

26:                                               ; preds = %15
  %27 = load ptr, ptr %6, align 8
  %28 = getelementptr inbounds nuw %"struct.p2t::Node", ptr %27, i32 0, i32 2
  %29 = load ptr, ptr %28, align 8
  %30 = load ptr, ptr %5, align 8
  %31 = getelementptr inbounds nuw %"class.p2t::SweepContext", ptr %30, i32 0, i32 1
  %32 = getelementptr inbounds nuw %"struct.p2t::SweepContext::Basin", ptr %31, i32 0, i32 2
  %33 = load ptr, ptr %32, align 8
  %34 = icmp eq ptr %29, %33
  br i1 %34, label %35, label %36

35:                                               ; preds = %26
  br label %138

36:                                               ; preds = %26, %15
  %37 = load ptr, ptr %6, align 8
  %38 = getelementptr inbounds nuw %"struct.p2t::Node", ptr %37, i32 0, i32 3
  %39 = load ptr, ptr %38, align 8
  %40 = load ptr, ptr %5, align 8
  %41 = getelementptr inbounds nuw %"class.p2t::SweepContext", ptr %40, i32 0, i32 1
  %42 = getelementptr inbounds nuw %"struct.p2t::SweepContext::Basin", ptr %41, i32 0, i32 0
  %43 = load ptr, ptr %42, align 8
  %44 = icmp eq ptr %39, %43
  br i1 %44, label %45, label %72

45:                                               ; preds = %36
  call void @llvm.lifetime.start.p0(i64 4, ptr %7) #14
  %46 = load ptr, ptr %6, align 8
  %47 = getelementptr inbounds nuw %"struct.p2t::Node", ptr %46, i32 0, i32 0
  %48 = load ptr, ptr %47, align 8
  %49 = load ptr, ptr %6, align 8
  %50 = getelementptr inbounds nuw %"struct.p2t::Node", ptr %49, i32 0, i32 2
  %51 = load ptr, ptr %50, align 8
  %52 = getelementptr inbounds nuw %"struct.p2t::Node", ptr %51, i32 0, i32 0
  %53 = load ptr, ptr %52, align 8
  %54 = load ptr, ptr %6, align 8
  %55 = getelementptr inbounds nuw %"struct.p2t::Node", ptr %54, i32 0, i32 2
  %56 = load ptr, ptr %55, align 8
  %57 = getelementptr inbounds nuw %"struct.p2t::Node", ptr %56, i32 0, i32 2
  %58 = load ptr, ptr %57, align 8
  %59 = getelementptr inbounds nuw %"struct.p2t::Node", ptr %58, i32 0, i32 0
  %60 = load ptr, ptr %59, align 8
  %61 = call noundef i32 @_ZN3p2t8Orient2dERKNS_5PointES2_S2_(ptr noundef nonnull align 8 dereferenceable(40) %48, ptr noundef nonnull align 8 dereferenceable(40) %53, ptr noundef nonnull align 8 dereferenceable(40) %60)
  store i32 %61, ptr %7, align 4
  %62 = load i32, ptr %7, align 4
  %63 = icmp eq i32 %62, 0
  br i1 %63, label %64, label %65

64:                                               ; preds = %45
  store i32 1, ptr %8, align 4
  br label %69

65:                                               ; preds = %45
  %66 = load ptr, ptr %6, align 8
  %67 = getelementptr inbounds nuw %"struct.p2t::Node", ptr %66, i32 0, i32 2
  %68 = load ptr, ptr %67, align 8
  store ptr %68, ptr %6, align 8
  store i32 0, ptr %8, align 4
  br label %69

69:                                               ; preds = %65, %64
  call void @llvm.lifetime.end.p0(i64 4, ptr %7) #14
  %70 = load i32, ptr %8, align 4
  switch i32 %70, label %139 [
    i32 0, label %71
    i32 1, label %138
  ]

71:                                               ; preds = %69
  br label %134

72:                                               ; preds = %36
  %73 = load ptr, ptr %6, align 8
  %74 = getelementptr inbounds nuw %"struct.p2t::Node", ptr %73, i32 0, i32 2
  %75 = load ptr, ptr %74, align 8
  %76 = load ptr, ptr %5, align 8
  %77 = getelementptr inbounds nuw %"class.p2t::SweepContext", ptr %76, i32 0, i32 1
  %78 = getelementptr inbounds nuw %"struct.p2t::SweepContext::Basin", ptr %77, i32 0, i32 2
  %79 = load ptr, ptr %78, align 8
  %80 = icmp eq ptr %75, %79
  br i1 %80, label %81, label %108

81:                                               ; preds = %72
  call void @llvm.lifetime.start.p0(i64 4, ptr %9) #14
  %82 = load ptr, ptr %6, align 8
  %83 = getelementptr inbounds nuw %"struct.p2t::Node", ptr %82, i32 0, i32 0
  %84 = load ptr, ptr %83, align 8
  %85 = load ptr, ptr %6, align 8
  %86 = getelementptr inbounds nuw %"struct.p2t::Node", ptr %85, i32 0, i32 3
  %87 = load ptr, ptr %86, align 8
  %88 = getelementptr inbounds nuw %"struct.p2t::Node", ptr %87, i32 0, i32 0
  %89 = load ptr, ptr %88, align 8
  %90 = load ptr, ptr %6, align 8
  %91 = getelementptr inbounds nuw %"struct.p2t::Node", ptr %90, i32 0, i32 3
  %92 = load ptr, ptr %91, align 8
  %93 = getelementptr inbounds nuw %"struct.p2t::Node", ptr %92, i32 0, i32 3
  %94 = load ptr, ptr %93, align 8
  %95 = getelementptr inbounds nuw %"struct.p2t::Node", ptr %94, i32 0, i32 0
  %96 = load ptr, ptr %95, align 8
  %97 = call noundef i32 @_ZN3p2t8Orient2dERKNS_5PointES2_S2_(ptr noundef nonnull align 8 dereferenceable(40) %84, ptr noundef nonnull align 8 dereferenceable(40) %89, ptr noundef nonnull align 8 dereferenceable(40) %96)
  store i32 %97, ptr %9, align 4
  %98 = load i32, ptr %9, align 4
  %99 = icmp eq i32 %98, 1
  br i1 %99, label %100, label %101

100:                                              ; preds = %81
  store i32 1, ptr %8, align 4
  br label %105

101:                                              ; preds = %81
  %102 = load ptr, ptr %6, align 8
  %103 = getelementptr inbounds nuw %"struct.p2t::Node", ptr %102, i32 0, i32 3
  %104 = load ptr, ptr %103, align 8
  store ptr %104, ptr %6, align 8
  store i32 0, ptr %8, align 4
  br label %105

105:                                              ; preds = %101, %100
  call void @llvm.lifetime.end.p0(i64 4, ptr %9) #14
  %106 = load i32, ptr %8, align 4
  switch i32 %106, label %139 [
    i32 0, label %107
    i32 1, label %138
  ]

107:                                              ; preds = %105
  br label %133

108:                                              ; preds = %72
  %109 = load ptr, ptr %6, align 8
  %110 = getelementptr inbounds nuw %"struct.p2t::Node", ptr %109, i32 0, i32 3
  %111 = load ptr, ptr %110, align 8
  %112 = getelementptr inbounds nuw %"struct.p2t::Node", ptr %111, i32 0, i32 0
  %113 = load ptr, ptr %112, align 8
  %114 = getelementptr inbounds nuw %"struct.p2t::Point", ptr %113, i32 0, i32 1
  %115 = load double, ptr %114, align 8
  %116 = load ptr, ptr %6, align 8
  %117 = getelementptr inbounds nuw %"struct.p2t::Node", ptr %116, i32 0, i32 2
  %118 = load ptr, ptr %117, align 8
  %119 = getelementptr inbounds nuw %"struct.p2t::Node", ptr %118, i32 0, i32 0
  %120 = load ptr, ptr %119, align 8
  %121 = getelementptr inbounds nuw %"struct.p2t::Point", ptr %120, i32 0, i32 1
  %122 = load double, ptr %121, align 8
  %123 = fcmp olt double %115, %122
  br i1 %123, label %124, label %128

124:                                              ; preds = %108
  %125 = load ptr, ptr %6, align 8
  %126 = getelementptr inbounds nuw %"struct.p2t::Node", ptr %125, i32 0, i32 3
  %127 = load ptr, ptr %126, align 8
  store ptr %127, ptr %6, align 8
  br label %132

128:                                              ; preds = %108
  %129 = load ptr, ptr %6, align 8
  %130 = getelementptr inbounds nuw %"struct.p2t::Node", ptr %129, i32 0, i32 2
  %131 = load ptr, ptr %130, align 8
  store ptr %131, ptr %6, align 8
  br label %132

132:                                              ; preds = %128, %124
  br label %133

133:                                              ; preds = %132, %107
  br label %134

134:                                              ; preds = %133, %71
  br label %135

135:                                              ; preds = %134
  %136 = load ptr, ptr %5, align 8
  %137 = load ptr, ptr %6, align 8
  call void @_ZN3p2t5Sweep12FillBasinReqERNS_12SweepContextEPNS_4NodeE(ptr noundef nonnull align 8 dereferenceable(24) %10, ptr noundef nonnull align 8 dereferenceable(200) %136, ptr noundef %137)
  br label %138

138:                                              ; preds = %135, %105, %69, %35, %14
  ret void

139:                                              ; preds = %105, %69
  unreachable
}