; Function Attrs: mustprogress uwtable
define hidden void @_ZN3p2t5Sweep12FillBasinReqERNS_12SweepContextEPNS_4NodeE(ptr noundef nonnull align 8 dereferenceable(24) %0, ptr noundef nonnull align 8 dereferenceable(200) %1, ptr noundef readonly captures(none) %2) local_unnamed_addr #2 align 2 {
  %4 = getelementptr inbounds nuw i8, ptr %1, i64 56
  %5 = getelementptr inbounds nuw i8, ptr %1, i64 48
  %6 = load i8, ptr %4, align 8, !range !6, !noundef !7
  %7 = trunc nuw i8 %6 to i1
  %8 = load ptr, ptr %2, align 8
  %9 = getelementptr inbounds nuw i8, ptr %8, i64 8
  %10 = load double, ptr %9, align 8
  %..i45 = select i1 %7, i64 24, i64 40
  %11 = getelementptr inbounds nuw i8, ptr %1, i64 %..i45
  %12 = load ptr, ptr %11, align 8
  %13 = load ptr, ptr %12, align 8
  %14 = getelementptr inbounds nuw i8, ptr %13, i64 8
  %15 = load double, ptr %14, align 8
  %16 = fsub double %15, %10
  %17 = load double, ptr %5, align 8
  %18 = fcmp ogt double %17, %16
  br i1 %18, label %._crit_edge, label %.lr.ph

.lr.ph:                                           ; preds = %3
  %19 = getelementptr inbounds nuw i8, ptr %1, i64 24
  %20 = getelementptr inbounds nuw i8, ptr %1, i64 40
  br label %21

21:                                               ; preds = %.lr.ph, %.thread37
  %.tr4446 = phi ptr [ %2, %.lr.ph ], [ %.2, %.thread37 ]
  tail call void @_ZN3p2t5Sweep4FillERNS_12SweepContextERNS_4NodeE(ptr noundef nonnull align 8 dereferenceable(24) %0, ptr noundef nonnull align 8 dereferenceable(200) %1, ptr noundef nonnull align 8 dereferenceable(40) %.tr4446)
  %22 = getelementptr inbounds nuw i8, ptr %.tr4446, i64 24
  %23 = load ptr, ptr %22, align 8
  %24 = load ptr, ptr %19, align 8
  %25 = icmp eq ptr %23, %24
  %26 = getelementptr inbounds nuw i8, ptr %.tr4446, i64 16
  %27 = load ptr, ptr %26, align 8
  %28 = load ptr, ptr %20, align 8
  %29 = icmp eq ptr %27, %28
  br i1 %25, label %30, label %54

30:                                               ; preds = %21
  br i1 %29, label %._crit_edge, label %31

31:                                               ; preds = %30
  %32 = load ptr, ptr %.tr4446, align 8
  %33 = load ptr, ptr %27, align 8
  %34 = getelementptr inbounds nuw i8, ptr %27, i64 16
  %35 = load ptr, ptr %34, align 8
  %36 = load ptr, ptr %35, align 8
  %37 = load double, ptr %32, align 8
  %38 = load double, ptr %36, align 8
  %39 = fsub double %37, %38
  %40 = getelementptr inbounds nuw i8, ptr %33, i64 8
  %41 = load double, ptr %40, align 8
  %42 = getelementptr inbounds nuw i8, ptr %36, i64 8
  %43 = load double, ptr %42, align 8
  %44 = fsub double %41, %43
  %45 = fmul double %39, %44
  %46 = getelementptr inbounds nuw i8, ptr %32, i64 8
  %47 = load double, ptr %46, align 8
  %48 = fsub double %47, %43
  %49 = load double, ptr %33, align 8
  %50 = fsub double %49, %38
  %51 = fmul double %48, %50
  %52 = fsub double %45, %51
  %53 = fcmp ult double %52, 0.000000e+00
  br i1 %53, label %._crit_edge, label %.thread37

54:                                               ; preds = %21
  br i1 %29, label %55, label %77

55:                                               ; preds = %54
  %56 = load ptr, ptr %.tr4446, align 8
  %57 = load ptr, ptr %23, align 8
  %58 = getelementptr inbounds nuw i8, ptr %23, i64 24
  %59 = load ptr, ptr %58, align 8
  %60 = load ptr, ptr %59, align 8
  %61 = load double, ptr %56, align 8
  %62 = load double, ptr %60, align 8
  %63 = fsub double %61, %62
  %64 = getelementptr inbounds nuw i8, ptr %57, i64 8
  %65 = load double, ptr %64, align 8
  %66 = getelementptr inbounds nuw i8, ptr %60, i64 8
  %67 = load double, ptr %66, align 8
  %68 = fsub double %65, %67
  %69 = fmul double %63, %68
  %70 = getelementptr inbounds nuw i8, ptr %56, i64 8
  %71 = load double, ptr %70, align 8
  %72 = fsub double %71, %67
  %73 = load double, ptr %57, align 8
  %74 = fsub double %73, %62
  %75 = fmul double %72, %74
  %76 = fcmp ogt double %69, %75
  br i1 %76, label %._crit_edge, label %.thread37

77:                                               ; preds = %54
  %78 = load ptr, ptr %23, align 8
  %79 = getelementptr inbounds nuw i8, ptr %78, i64 8
  %80 = load double, ptr %79, align 8
  %81 = load ptr, ptr %27, align 8
  %82 = getelementptr inbounds nuw i8, ptr %81, i64 8
  %83 = load double, ptr %82, align 8
  %84 = fcmp olt double %80, %83
  %85 = select i1 %84, ptr %78, ptr %81
  %. = select i1 %84, ptr %23, ptr %27
  %.phi.trans.insert = getelementptr inbounds nuw i8, ptr %85, i64 8
  %.pre = load double, ptr %.phi.trans.insert, align 8
  br label %.thread37

.thread37:                                        ; preds = %55, %31, %77
  %86 = phi double [ %.pre, %77 ], [ %41, %31 ], [ %65, %55 ]
  %.2 = phi ptr [ %., %77 ], [ %27, %31 ], [ %23, %55 ]
  %87 = load i8, ptr %4, align 8, !range !6, !noundef !7
  %88 = trunc nuw i8 %87 to i1
  %..i = select i1 %88, i64 24, i64 40
  %89 = getelementptr inbounds nuw i8, ptr %1, i64 %..i
  %90 = load ptr, ptr %89, align 8
  %91 = load ptr, ptr %90, align 8
  %92 = getelementptr inbounds nuw i8, ptr %91, i64 8
  %93 = load double, ptr %92, align 8
  %94 = fsub double %93, %86
  %95 = load double, ptr %5, align 8
  %96 = fcmp ogt double %95, %94
  br i1 %96, label %._crit_edge, label %21

._crit_edge:                                      ; preds = %.thread37, %30, %31, %55, %3
  ret void
}